target datalayout = "e-m:e-p270:32:32-p271:32:32-p272:64:64-i64:64-i128:128-f80:128-n8:16:32:64-S128"
target triple = "x86_64-pc-linux-gnu"

%struct.JNINativeInterface_ = type { ptr, ptr, ptr, ptr, ptr, ptr, ptr, ptr, ptr, ptr, ptr, ptr, ptr, ptr, ptr, ptr, ptr, ptr, ptr, ptr, ptr, ptr, ptr, ptr, ptr, ptr, ptr, ptr, ptr, ptr, ptr, ptr, ptr, ptr, ptr, ptr, ptr, ptr, ptr, ptr, ptr, ptr, ptr, ptr, ptr, ptr, ptr, ptr, ptr, ptr, ptr, ptr, ptr, ptr, ptr, ptr, ptr, ptr, ptr, ptr, ptr, ptr, ptr, ptr, ptr, ptr, ptr, ptr, ptr, ptr, ptr, ptr, ptr, ptr, ptr, ptr, ptr, ptr, ptr, ptr, ptr, ptr, ptr, ptr, ptr, ptr, ptr, ptr, ptr, ptr, ptr, ptr, ptr, ptr, ptr, ptr, ptr, ptr, ptr, ptr, ptr, ptr, ptr, ptr, ptr, ptr, ptr, ptr, ptr, ptr, ptr, ptr, ptr, ptr, ptr, ptr, ptr, ptr, ptr, ptr, ptr, ptr, ptr, ptr, ptr, ptr, ptr, ptr, ptr, ptr, ptr, ptr, ptr, ptr, ptr, ptr, ptr, ptr, ptr, ptr, ptr, ptr, ptr, ptr, ptr, ptr, ptr, ptr, ptr, ptr, ptr, ptr, ptr, ptr, ptr, ptr, ptr, ptr, ptr, ptr, ptr, ptr, ptr, ptr, ptr, ptr, ptr, ptr, ptr, ptr, ptr, ptr, ptr, ptr, ptr, ptr, ptr, ptr, ptr, ptr, ptr, ptr, ptr, ptr, ptr, ptr, ptr, ptr, ptr, ptr, ptr, ptr, ptr, ptr, ptr, ptr, ptr, ptr, ptr, ptr, ptr, ptr, ptr, ptr, ptr, ptr, ptr, ptr, ptr, ptr, ptr, ptr, ptr, ptr, ptr, ptr, ptr, ptr, ptr, ptr, ptr, ptr, ptr, ptr, ptr, ptr, ptr, ptr, ptr, ptr, ptr, ptr, ptr, ptr, ptr }

; Function Attrs: nounwind uwtable
define ptr @Java_java_lang_Class_forName0(ptr noundef %0, ptr noundef %1, ptr noundef %2, i8 noundef zeroext %3, ptr noundef %4, ptr noundef %5) #0 {
  %7 = alloca ptr, align 8
  %8 = alloca ptr, align 8
  %9 = alloca ptr, align 8
  %10 = alloca ptr, align 8
  %11 = alloca i8, align 1
  %12 = alloca ptr, align 8
  %13 = alloca ptr, align 8
  %14 = alloca ptr, align 8
  %15 = alloca ptr, align 8
  %16 = alloca [128 x i8], align 16
  %17 = alloca i32, align 4
  %18 = alloca i32, align 4
  store ptr %0, ptr %8, align 8
  store ptr %1, ptr %9, align 8
  store ptr %2, ptr %10, align 8
  store i8 %3, ptr %11, align 1
  store ptr %4, ptr %12, align 8
  store ptr %5, ptr %13, align 8
  store ptr null, ptr %15, align 8
  %19 = load ptr, ptr %10, align 8
  %20 = icmp eq ptr %19, null
  br i1 %20, label %21, label %23

21:                                               ; preds = %6
  %22 = load ptr, ptr %8, align 8
  call void @JNU_ThrowNullPointerException(ptr noundef %22, ptr noundef null)
  store ptr null, ptr %7, align 8
  br label %98

23:                                               ; preds = %6
  %24 = load ptr, ptr %8, align 8
  %25 = load ptr, ptr %24, align 8
  %26 = getelementptr inbounds %struct.JNINativeInterface_, ptr %25, i32 0, i32 168
  %27 = load ptr, ptr %26, align 8
  %28 = load ptr, ptr %8, align 8
  %29 = load ptr, ptr %10, align 8
  %30 = call i32 %27(ptr noundef %28, ptr noundef %29)
  store i32 %30, ptr %17, align 4
  %31 = load ptr, ptr %8, align 8
  %32 = load ptr, ptr %31, align 8
  %33 = getelementptr inbounds %struct.JNINativeInterface_, ptr %32, i32 0, i32 164
  %34 = load ptr, ptr %33, align 8
  %35 = load ptr, ptr %8, align 8
  %36 = load ptr, ptr %10, align 8
  %37 = call i32 %34(ptr noundef %35, ptr noundef %36)
  store i32 %37, ptr %18, align 4
  %38 = load i32, ptr %17, align 4
  %39 = icmp sge i32 %38, 128
  br i1 %39, label %40, label %50

40:                                               ; preds = %23
  %41 = load i32, ptr %17, align 4
  %42 = add nsw i32 %41, 1
  %43 = sext i32 %42 to i64
  %44 = call noalias ptr @malloc(i64 noundef %43) #4
  store ptr %44, ptr %14, align 8
  %45 = load ptr, ptr %14, align 8
  %46 = icmp eq ptr %45, null
  br i1 %46, label %47, label %49

47:                                               ; preds = %40
  %48 = load ptr, ptr %8, align 8
  call void @JNU_ThrowOutOfMemoryError(ptr noundef %48, ptr noundef null)
  store ptr null, ptr %7, align 8
  br label %98

49:                                               ; preds = %40
  br label %52

50:                                               ; preds = %23
  %51 = getelementptr inbounds [128 x i8], ptr %16, i64 0, i64 0
  store ptr %51, ptr %14, align 8
  br label %52

52:                                               ; preds = %50, %49
  %53 = load ptr, ptr %8, align 8
  %54 = load ptr, ptr %53, align 8
  %55 = getelementptr inbounds %struct.JNINativeInterface_, ptr %54, i32 0, i32 221
  %56 = load ptr, ptr %55, align 8
  %57 = load ptr, ptr %8, align 8
  %58 = load ptr, ptr %10, align 8
  %59 = load i32, ptr %18, align 4
  %60 = load ptr, ptr %14, align 8
  call void %56(ptr noundef %57, ptr noundef %58, i32 noundef 0, i32 noundef %59, ptr noundef %60)
  %61 = load ptr, ptr %14, align 8
  %62 = call zeroext i8 @verifyFixClassname(ptr noundef %61)
  %63 = zext i8 %62 to i32
  %64 = icmp eq i32 %63, 1
  br i1 %64, label %65, label %76

65:                                               ; preds = %52
  %66 = load ptr, ptr %8, align 8
  %67 = load ptr, ptr %66, align 8
  %68 = getelementptr inbounds %struct.JNINativeInterface_, ptr %67, i32 0, i32 221
  %69 = load ptr, ptr %68, align 8
  %70 = load ptr, ptr %8, align 8
  %71 = load ptr, ptr %10, align 8
  %72 = load i32, ptr %18, align 4
  %73 = load ptr, ptr %14, align 8
  call void %69(ptr noundef %70, ptr noundef %71, i32 noundef 0, i32 noundef %72, ptr noundef %73)
  %74 = load ptr, ptr %8, align 8
  %75 = load ptr, ptr %14, align 8
  call void @JNU_ThrowClassNotFoundException(ptr noundef %74, ptr noundef %75)
  br label %90

76:                                               ; preds = %52
  %77 = load ptr, ptr %14, align 8
  %78 = call zeroext i8 @verifyClassname(ptr noundef %77, i8 noundef zeroext 1)
  %79 = icmp ne i8 %78, 0
  br i1 %79, label %83, label %80

80:                                               ; preds = %76
  %81 = load ptr, ptr %8, align 8
  %82 = load ptr, ptr %14, align 8
  call void @JNU_ThrowClassNotFoundException(ptr noundef %81, ptr noundef %82)
  br label %90

83:                                               ; preds = %76
  %84 = load ptr, ptr %8, align 8
  %85 = load ptr, ptr %14, align 8
  %86 = load i8, ptr %11, align 1
  %87 = load ptr, ptr %12, align 8
  %88 = load ptr, ptr %13, align 8
  %89 = call ptr @JVM_FindClassFromCaller(ptr noundef %84, ptr noundef %85, i8 noundef zeroext %86, ptr noundef %87, ptr noundef %88)
  store ptr %89, ptr %15, align 8
  br label %90

90:                                               ; preds = %83, %80, %65
  %91 = load ptr, ptr %14, align 8
  %92 = getelementptr inbounds [128 x i8], ptr %16, i64 0, i64 0
  %93 = icmp ne ptr %91, %92
  br i1 %93, label %94, label %96

94:                                               ; preds = %90
  %95 = load ptr, ptr %14, align 8
  call void @free(ptr noundef %95) #5
  br label %96

96:                                               ; preds = %94, %90
  %97 = load ptr, ptr %15, align 8
  store ptr %97, ptr %7, align 8
  br label %98

98:                                               ; preds = %96, %47, %21
  %99 = load ptr, ptr %7, align 8
  ret ptr %99
}