; Function Attrs: nounwind uwtable
define ptr @Java_java_lang_Class_forName0(ptr noundef %0, ptr nocapture noundef readnone %1, ptr noundef %2, i8 noundef zeroext %3, ptr noundef %4, ptr noundef %5) local_unnamed_addr #0 {
  %7 = alloca [128 x i8], align 16
  %8 = icmp eq ptr %2, null
  br i1 %8, label %9, label %10

9:                                                ; preds = %6
  tail call void @JNU_ThrowNullPointerException(ptr noundef %0, ptr noundef null) #4
  br label %43

10:                                               ; preds = %6
  %11 = load ptr, ptr %0, align 8
  %12 = getelementptr inbounds i8, ptr %11, i64 1344
  %13 = load ptr, ptr %12, align 8
  %14 = tail call i32 %13(ptr noundef nonnull %0, ptr noundef nonnull %2) #4
  %15 = load ptr, ptr %0, align 8
  %16 = getelementptr inbounds i8, ptr %15, i64 1312
  %17 = load ptr, ptr %16, align 8
  %18 = tail call i32 %17(ptr noundef nonnull %0, ptr noundef nonnull %2) #4
  %19 = icmp sgt i32 %14, 127
  br i1 %19, label %20, label %26

20:                                               ; preds = %10
  %21 = add nuw nsw i32 %14, 1
  %22 = zext nneg i32 %21 to i64
  %23 = tail call noalias ptr @malloc(i64 noundef %22) #5
  %24 = icmp eq ptr %23, null
  br i1 %24, label %25, label %26

25:                                               ; preds = %20
  tail call void @JNU_ThrowOutOfMemoryError(ptr noundef nonnull %0, ptr noundef null) #4
  br label %43

26:                                               ; preds = %10, %20
  %.036 = phi ptr [ %23, %20 ], [ %7, %10 ]
  %27 = load ptr, ptr %0, align 8
  %28 = getelementptr inbounds i8, ptr %27, i64 1768
  %29 = load ptr, ptr %28, align 8
  call void %29(ptr noundef nonnull %0, ptr noundef nonnull %2, i32 noundef 0, i32 noundef %18, ptr noundef nonnull %.036) #4
  %30 = call zeroext i8 @verifyFixClassname(ptr noundef nonnull %.036) #4
  %31 = icmp eq i8 %30, 1
  br i1 %31, label %32, label %36

32:                                               ; preds = %26
  %33 = load ptr, ptr %0, align 8
  %34 = getelementptr inbounds i8, ptr %33, i64 1768
  %35 = load ptr, ptr %34, align 8
  call void %35(ptr noundef nonnull %0, ptr noundef nonnull %2, i32 noundef 0, i32 noundef %18, ptr noundef nonnull %.036) #4
  call void @JNU_ThrowClassNotFoundException(ptr noundef nonnull %0, ptr noundef nonnull %.036) #4
  br label %41

36:                                               ; preds = %26
  %37 = call zeroext i8 @verifyClassname(ptr noundef nonnull %.036, i8 noundef zeroext 1) #4
  %.not = icmp eq i8 %37, 0
  br i1 %.not, label %38, label %39

38:                                               ; preds = %36
  call void @JNU_ThrowClassNotFoundException(ptr noundef nonnull %0, ptr noundef nonnull %.036) #4
  br label %41

39:                                               ; preds = %36
  %40 = call ptr @JVM_FindClassFromCaller(ptr noundef nonnull %0, ptr noundef nonnull %.036, i8 noundef zeroext %3, ptr noundef %4, ptr noundef %5) #4
  br label %41

41:                                               ; preds = %39, %38, %32
  %.037 = phi ptr [ null, %32 ], [ %40, %39 ], [ null, %38 ]
  %.not41 = icmp eq ptr %.036, %7
  br i1 %.not41, label %43, label %42

42:                                               ; preds = %41
  call void @free(ptr noundef nonnull %.036) #4
  br label %43

43:                                               ; preds = %41, %42, %25, %9
  %.0 = phi ptr [ null, %9 ], [ null, %25 ], [ %.037, %42 ], [ %.037, %41 ]
  ret ptr %.0
}